target datalayout = "e-m:e-p270:32:32-p271:32:32-p272:64:64-i64:64-i128:128-f80:128-n8:16:32:64-S128"
target triple = "x86_64-pc-linux-gnu"

%struct.st_dynamic_data_ctx = type { ptr, ptr, ptr, ptr, i32, ptr, i32, ptr, ptr, i32, ptr }

@.str.2 = private unnamed_addr constant [35 x i8] c"../openssl/crypto/engine/eng_dyn.c\00", align 1

; Function Attrs: inlinehint nounwind uwtable
define internal ptr @ossl_check_OPENSSL_STRING_freefunc_type(ptr noundef %0) #4 {
  %2 = alloca ptr, align 8
  store ptr %0, ptr %2, align 8, !tbaa !14
  %3 = load ptr, ptr %2, align 8, !tbaa !14
  ret ptr %3
}

; Function Attrs: inlinehint nounwind uwtable
define internal ptr @ossl_check_OPENSSL_STRING_sk_type(ptr noundef %0) #4 {
  %2 = alloca ptr, align 8
  store ptr %0, ptr %2, align 8, !tbaa !34
  %3 = load ptr, ptr %2, align 8, !tbaa !34
  ret ptr %3
}

; Function Attrs: nounwind uwtable
define internal void @dynamic_data_ctx_free_func(ptr noundef %0, ptr noundef %1, ptr noundef %2, i32 noundef %3, i64 noundef %4, ptr noundef %5) #0 {
  %7 = alloca ptr, align 8
  %8 = alloca ptr, align 8
  %9 = alloca ptr, align 8
  %10 = alloca i32, align 4
  %11 = alloca i64, align 8
  %12 = alloca ptr, align 8
  %13 = alloca ptr, align 8
  store ptr %0, ptr %7, align 8, !tbaa !14
  store ptr %1, ptr %8, align 8, !tbaa !14
  store ptr %2, ptr %9, align 8, !tbaa !35
  store i32 %3, ptr %10, align 4, !tbaa !10
  store i64 %4, ptr %11, align 8, !tbaa !12
  store ptr %5, ptr %12, align 8, !tbaa !14
  %14 = load ptr, ptr %8, align 8, !tbaa !14
  %15 = icmp ne ptr %14, null
  br i1 %15, label %16, label %34

16:                                               ; preds = %6
  call void @llvm.lifetime.start.p0(i64 8, ptr %13) #6
  %17 = load ptr, ptr %8, align 8, !tbaa !14
  store ptr %17, ptr %13, align 8, !tbaa !15
  %18 = load ptr, ptr %13, align 8, !tbaa !15
  %19 = getelementptr inbounds nuw %struct.st_dynamic_data_ctx, ptr %18, i32 0, i32 0
  %20 = load ptr, ptr %19, align 8, !tbaa !17
  %21 = call i32 @DSO_free(ptr noundef %20)
  %22 = load ptr, ptr %13, align 8, !tbaa !15
  %23 = getelementptr inbounds nuw %struct.st_dynamic_data_ctx, ptr %22, i32 0, i32 3
  %24 = load ptr, ptr %23, align 8, !tbaa !21
  call void @CRYPTO_free(ptr noundef %24, ptr noundef @.str.2, i32 noundef 144)
  %25 = load ptr, ptr %13, align 8, !tbaa !15
  %26 = getelementptr inbounds nuw %struct.st_dynamic_data_ctx, ptr %25, i32 0, i32 5
  %27 = load ptr, ptr %26, align 8, !tbaa !23
  call void @CRYPTO_free(ptr noundef %27, ptr noundef @.str.2, i32 noundef 145)
  %28 = load ptr, ptr %13, align 8, !tbaa !15
  %29 = getelementptr inbounds nuw %struct.st_dynamic_data_ctx, ptr %28, i32 0, i32 10
  %30 = load ptr, ptr %29, align 8, !tbaa !26
  %31 = call ptr @ossl_check_OPENSSL_STRING_sk_type(ptr noundef %30)
  %32 = call ptr @ossl_check_OPENSSL_STRING_freefunc_type(ptr noundef @int_free_str)
  call void @OPENSSL_sk_pop_free(ptr noundef %31, ptr noundef %32)
  %33 = load ptr, ptr %13, align 8, !tbaa !15
  call void @CRYPTO_free(ptr noundef %33, ptr noundef @.str.2, i32 noundef 147)
  call void @llvm.lifetime.end.p0(i64 8, ptr %13) #6
  br label %34

34:                                               ; preds = %16, %6
  ret void
}