; Function Attrs: nounwind uwtable
define internal void @dynamic_data_ctx_free_func(ptr readnone captures(none) %0, ptr noundef %1, ptr readnone captures(none) %2, i32 %3, i64 %4, ptr readnone captures(none) %5) #0 {
  %.not = icmp eq ptr %1, null
  br i1 %.not, label %16, label %7

7:                                                ; preds = %6
  %8 = load ptr, ptr %1, align 8, !tbaa !17
  %9 = tail call i32 @DSO_free(ptr noundef %8) #6
  %10 = getelementptr inbounds nuw i8, ptr %1, i64 24
  %11 = load ptr, ptr %10, align 8, !tbaa !18
  tail call void @CRYPTO_free(ptr noundef %11, ptr noundef nonnull @.str.2, i32 noundef 144) #6
  %12 = getelementptr inbounds nuw i8, ptr %1, i64 40
  %13 = load ptr, ptr %12, align 8, !tbaa !20
  tail call void @CRYPTO_free(ptr noundef %13, ptr noundef nonnull @.str.2, i32 noundef 145) #6
  %14 = getelementptr inbounds nuw i8, ptr %1, i64 80
  %15 = load ptr, ptr %14, align 8, !tbaa !9
  tail call void @OPENSSL_sk_pop_free(ptr noundef %15, ptr noundef nonnull @int_free_str) #6
  tail call void @CRYPTO_free(ptr noundef nonnull %1, ptr noundef nonnull @.str.2, i32 noundef 147) #6
  br label %16

16:                                               ; preds = %7, %6
  ret void
}